target datalayout = "e-m:e-p270:32:32-p271:32:32-p272:64:64-i64:64-i128:128-f80:128-n8:16:32:64-S128"
target triple = "x86_64-pc-linux-gnu"

%struct.tdefl_compressor = type { ptr, ptr, i32, [2 x i32], i32, i32, i32, i32, i32, ptr, ptr, ptr, ptr, i32, i32, i32, i32, i32, i32, i32, i32, i32, i32, i32, i32, i32, i32, ptr, ptr, ptr, ptr, i32, ptr, i64, i64, [33025 x i8], [3 x [288 x i16]], [3 x [288 x i16]], [3 x [288 x i8]], [65536 x i8], [32768 x i16], [32768 x i16], [85196 x i8] }

; Function Attrs: mustprogress uwtable
define i32 @tdefl_compress(ptr noundef %0, ptr noundef %1, ptr noundef %2, ptr noundef %3, ptr noundef %4, i32 noundef %5) #5 {
  %7 = alloca i32, align 4
  %8 = alloca ptr, align 8
  %9 = alloca ptr, align 8
  %10 = alloca ptr, align 8
  %11 = alloca ptr, align 8
  %12 = alloca ptr, align 8
  %13 = alloca i32, align 4
  store ptr %0, ptr %8, align 8
  store ptr %1, ptr %9, align 8
  store ptr %2, ptr %10, align 8
  store ptr %3, ptr %11, align 8
  store ptr %4, ptr %12, align 8
  store i32 %5, ptr %13, align 4
  %14 = load ptr, ptr %8, align 8
  %15 = icmp ne ptr %14, null
  br i1 %15, label %27, label %16

16:                                               ; preds = %6
  %17 = load ptr, ptr %10, align 8
  %18 = icmp ne ptr %17, null
  br i1 %18, label %19, label %21

19:                                               ; preds = %16
  %20 = load ptr, ptr %10, align 8
  store i64 0, ptr %20, align 8
  br label %21

21:                                               ; preds = %19, %16
  %22 = load ptr, ptr %12, align 8
  %23 = icmp ne ptr %22, null
  br i1 %23, label %24, label %26

24:                                               ; preds = %21
  %25 = load ptr, ptr %12, align 8
  store i64 0, ptr %25, align 8
  br label %26

26:                                               ; preds = %24, %21
  store i32 -2, ptr %7, align 4
  br label %250

27:                                               ; preds = %6
  %28 = load ptr, ptr %9, align 8
  %29 = load ptr, ptr %8, align 8
  %30 = getelementptr inbounds %struct.tdefl_compressor, ptr %29, i32 0, i32 27
  store ptr %28, ptr %30, align 8
  %31 = load ptr, ptr %10, align 8
  %32 = load ptr, ptr %8, align 8
  %33 = getelementptr inbounds %struct.tdefl_compressor, ptr %32, i32 0, i32 29
  store ptr %31, ptr %33, align 8
  %34 = load ptr, ptr %11, align 8
  %35 = load ptr, ptr %8, align 8
  %36 = getelementptr inbounds %struct.tdefl_compressor, ptr %35, i32 0, i32 28
  store ptr %34, ptr %36, align 8
  %37 = load ptr, ptr %12, align 8
  %38 = load ptr, ptr %8, align 8
  %39 = getelementptr inbounds %struct.tdefl_compressor, ptr %38, i32 0, i32 30
  store ptr %37, ptr %39, align 8
  %40 = load ptr, ptr %9, align 8
  %41 = load ptr, ptr %8, align 8
  %42 = getelementptr inbounds %struct.tdefl_compressor, ptr %41, i32 0, i32 32
  store ptr %40, ptr %42, align 8
  %43 = load ptr, ptr %10, align 8
  %44 = icmp ne ptr %43, null
  br i1 %44, label %45, label %48

45:                                               ; preds = %27
  %46 = load ptr, ptr %10, align 8
  %47 = load i64, ptr %46, align 8
  br label %49

48:                                               ; preds = %27
  br label %49

49:                                               ; preds = %48, %45
  %50 = phi i64 [ %47, %45 ], [ 0, %48 ]
  %51 = load ptr, ptr %8, align 8
  %52 = getelementptr inbounds %struct.tdefl_compressor, ptr %51, i32 0, i32 33
  store i64 %50, ptr %52, align 8
  %53 = load ptr, ptr %8, align 8
  %54 = getelementptr inbounds %struct.tdefl_compressor, ptr %53, i32 0, i32 34
  store i64 0, ptr %54, align 8
  %55 = load i32, ptr %13, align 4
  %56 = load ptr, ptr %8, align 8
  %57 = getelementptr inbounds %struct.tdefl_compressor, ptr %56, i32 0, i32 31
  store i32 %55, ptr %57, align 8
  %58 = load ptr, ptr %8, align 8
  %59 = getelementptr inbounds %struct.tdefl_compressor, ptr %58, i32 0, i32 0
  %60 = load ptr, ptr %59, align 8
  %61 = icmp ne ptr %60, null
  %62 = zext i1 %61 to i32
  %63 = load ptr, ptr %11, align 8
  %64 = icmp ne ptr %63, null
  br i1 %64, label %68, label %65

65:                                               ; preds = %49
  %66 = load ptr, ptr %12, align 8
  %67 = icmp ne ptr %66, null
  br label %68

68:                                               ; preds = %65, %49
  %69 = phi i1 [ true, %49 ], [ %67, %65 ]
  %70 = zext i1 %69 to i32
  %71 = icmp eq i32 %62, %70
  br i1 %71, label %105, label %72

72:                                               ; preds = %68
  %73 = load ptr, ptr %8, align 8
  %74 = getelementptr inbounds %struct.tdefl_compressor, ptr %73, i32 0, i32 26
  %75 = load i32, ptr %74, align 4
  %76 = icmp ne i32 %75, 0
  br i1 %76, label %105, label %77

77:                                               ; preds = %72
  %78 = load ptr, ptr %8, align 8
  %79 = getelementptr inbounds %struct.tdefl_compressor, ptr %78, i32 0, i32 25
  %80 = load i32, ptr %79, align 8
  %81 = icmp ne i32 %80, 0
  br i1 %81, label %82, label %85

82:                                               ; preds = %77
  %83 = load i32, ptr %13, align 4
  %84 = icmp ne i32 %83, 4
  br i1 %84, label %105, label %85

85:                                               ; preds = %82, %77
  %86 = load ptr, ptr %10, align 8
  %87 = icmp ne ptr %86, null
  br i1 %87, label %88, label %95

88:                                               ; preds = %85
  %89 = load ptr, ptr %10, align 8
  %90 = load i64, ptr %89, align 8
  %91 = icmp ne i64 %90, 0
  br i1 %91, label %92, label %95

92:                                               ; preds = %88
  %93 = load ptr, ptr %9, align 8
  %94 = icmp ne ptr %93, null
  br i1 %94, label %95, label %105

95:                                               ; preds = %92, %88, %85
  %96 = load ptr, ptr %12, align 8
  %97 = icmp ne ptr %96, null
  br i1 %97, label %98, label %118

98:                                               ; preds = %95
  %99 = load ptr, ptr %12, align 8
  %100 = load i64, ptr %99, align 8
  %101 = icmp ne i64 %100, 0
  br i1 %101, label %102, label %118

102:                                              ; preds = %98
  %103 = load ptr, ptr %11, align 8
  %104 = icmp ne ptr %103, null
  br i1 %104, label %118, label %105

105:                                              ; preds = %102, %92, %82, %72, %68
  %106 = load ptr, ptr %10, align 8
  %107 = icmp ne ptr %106, null
  br i1 %107, label %108, label %110

108:                                              ; preds = %105
  %109 = load ptr, ptr %10, align 8
  store i64 0, ptr %109, align 8
  br label %110

110:                                              ; preds = %108, %105
  %111 = load ptr, ptr %12, align 8
  %112 = icmp ne ptr %111, null
  br i1 %112, label %113, label %115

113:                                              ; preds = %110
  %114 = load ptr, ptr %12, align 8
  store i64 0, ptr %114, align 8
  br label %115

115:                                              ; preds = %113, %110
  %116 = load ptr, ptr %8, align 8
  %117 = getelementptr inbounds %struct.tdefl_compressor, ptr %116, i32 0, i32 26
  store i32 -2, ptr %117, align 4
  store i32 -2, ptr %7, align 4
  br label %250

118:                                              ; preds = %102, %98, %95
  %119 = load i32, ptr %13, align 4
  %120 = icmp eq i32 %119, 4
  %121 = zext i1 %120 to i32
  %122 = load ptr, ptr %8, align 8
  %123 = getelementptr inbounds %struct.tdefl_compressor, ptr %122, i32 0, i32 25
  %124 = load i32, ptr %123, align 8
  %125 = or i32 %124, %121
  store i32 %125, ptr %123, align 8
  %126 = load ptr, ptr %8, align 8
  %127 = getelementptr inbounds %struct.tdefl_compressor, ptr %126, i32 0, i32 22
  %128 = load i32, ptr %127, align 4
  %129 = icmp ne i32 %128, 0
  br i1 %129, label %135, label %130

130:                                              ; preds = %118
  %131 = load ptr, ptr %8, align 8
  %132 = getelementptr inbounds %struct.tdefl_compressor, ptr %131, i32 0, i32 23
  %133 = load i32, ptr %132, align 8
  %134 = icmp ne i32 %133, 0
  br i1 %134, label %135, label %140

135:                                              ; preds = %130, %118
  %136 = load ptr, ptr %8, align 8
  %137 = call noundef i32 @_ZL25tdefl_flush_output_bufferP16tdefl_compressor(ptr noundef %136)
  %138 = load ptr, ptr %8, align 8
  %139 = getelementptr inbounds %struct.tdefl_compressor, ptr %138, i32 0, i32 26
  store i32 %137, ptr %139, align 4
  store i32 %137, ptr %7, align 4
  br label %250

140:                                              ; preds = %130
  %141 = load ptr, ptr %8, align 8
  %142 = getelementptr inbounds %struct.tdefl_compressor, ptr %141, i32 0, i32 2
  %143 = load i32, ptr %142, align 8
  %144 = and i32 %143, 4095
  %145 = icmp eq i32 %144, 1
  br i1 %145, label %146, label %167

146:                                              ; preds = %140
  %147 = load ptr, ptr %8, align 8
  %148 = getelementptr inbounds %struct.tdefl_compressor, ptr %147, i32 0, i32 2
  %149 = load i32, ptr %148, align 8
  %150 = and i32 %149, 16384
  %151 = icmp ne i32 %150, 0
  br i1 %151, label %152, label %167

152:                                              ; preds = %146
  %153 = load ptr, ptr %8, align 8
  %154 = getelementptr inbounds %struct.tdefl_compressor, ptr %153, i32 0, i32 2
  %155 = load i32, ptr %154, align 8
  %156 = and i32 %155, 720896
  %157 = icmp eq i32 %156, 0
  br i1 %157, label %158, label %167

158:                                              ; preds = %152
  %159 = load ptr, ptr %8, align 8
  %160 = call noundef i32 @_ZL19tdefl_compress_fastP16tdefl_compressor(ptr noundef %159)
  %161 = icmp ne i32 %160, 0
  br i1 %161, label %166, label %162

162:                                              ; preds = %158
  %163 = load ptr, ptr %8, align 8
  %164 = getelementptr inbounds %struct.tdefl_compressor, ptr %163, i32 0, i32 26
  %165 = load i32, ptr %164, align 4
  store i32 %165, ptr %7, align 4
  br label %250

166:                                              ; preds = %158
  br label %176

167:                                              ; preds = %152, %146, %140
  %168 = load ptr, ptr %8, align 8
  %169 = call noundef i32 @_ZL21tdefl_compress_normalP16tdefl_compressor(ptr noundef %168)
  %170 = icmp ne i32 %169, 0
  br i1 %170, label %175, label %171

171:                                              ; preds = %167
  %172 = load ptr, ptr %8, align 8
  %173 = getelementptr inbounds %struct.tdefl_compressor, ptr %172, i32 0, i32 26
  %174 = load i32, ptr %173, align 4
  store i32 %174, ptr %7, align 4
  br label %250

175:                                              ; preds = %167
  br label %176

176:                                              ; preds = %175, %166
  %177 = load ptr, ptr %8, align 8
  %178 = getelementptr inbounds %struct.tdefl_compressor, ptr %177, i32 0, i32 2
  %179 = load i32, ptr %178, align 8
  %180 = and i32 %179, 12288
  %181 = icmp ne i32 %180, 0
  br i1 %181, label %182, label %202

182:                                              ; preds = %176
  %183 = load ptr, ptr %9, align 8
  %184 = icmp ne ptr %183, null
  br i1 %184, label %185, label %202

185:                                              ; preds = %182
  %186 = load ptr, ptr %8, align 8
  %187 = getelementptr inbounds %struct.tdefl_compressor, ptr %186, i32 0, i32 5
  %188 = load i32, ptr %187, align 8
  %189 = zext i32 %188 to i64
  %190 = load ptr, ptr %9, align 8
  %191 = load ptr, ptr %8, align 8
  %192 = getelementptr inbounds %struct.tdefl_compressor, ptr %191, i32 0, i32 32
  %193 = load ptr, ptr %192, align 8
  %194 = load ptr, ptr %9, align 8
  %195 = ptrtoint ptr %193 to i64
  %196 = ptrtoint ptr %194 to i64
  %197 = sub i64 %195, %196
  %198 = call i64 @mz_adler32(i64 noundef %189, ptr noundef %190, i64 noundef %197)
  %199 = trunc i64 %198 to i32
  %200 = load ptr, ptr %8, align 8
  %201 = getelementptr inbounds %struct.tdefl_compressor, ptr %200, i32 0, i32 5
  store i32 %199, ptr %201, align 8
  br label %202

202:                                              ; preds = %185, %182, %176
  %203 = load i32, ptr %13, align 4
  %204 = icmp ne i32 %203, 0
  br i1 %204, label %205, label %245

205:                                              ; preds = %202
  %206 = load ptr, ptr %8, align 8
  %207 = getelementptr inbounds %struct.tdefl_compressor, ptr %206, i32 0, i32 7
  %208 = load i32, ptr %207, align 8
  %209 = icmp ne i32 %208, 0
  br i1 %209, label %245, label %210

210:                                              ; preds = %205
  %211 = load ptr, ptr %8, align 8
  %212 = getelementptr inbounds %struct.tdefl_compressor, ptr %211, i32 0, i32 33
  %213 = load i64, ptr %212, align 8
  %214 = icmp ne i64 %213, 0
  br i1 %214, label %245, label %215

215:                                              ; preds = %210
  %216 = load ptr, ptr %8, align 8
  %217 = getelementptr inbounds %struct.tdefl_compressor, ptr %216, i32 0, i32 22
  %218 = load i32, ptr %217, align 4
  %219 = icmp ne i32 %218, 0
  br i1 %219, label %245, label %220

220:                                              ; preds = %215
  %221 = load ptr, ptr %8, align 8
  %222 = load i32, ptr %13, align 4
  %223 = call noundef i32 @_ZL17tdefl_flush_blockP16tdefl_compressori(ptr noundef %221, i32 noundef %222)
  %224 = icmp slt i32 %223, 0
  br i1 %224, label %225, label %229

225:                                              ; preds = %220
  %226 = load ptr, ptr %8, align 8
  %227 = getelementptr inbounds %struct.tdefl_compressor, ptr %226, i32 0, i32 26
  %228 = load i32, ptr %227, align 4
  store i32 %228, ptr %7, align 4
  br label %250

229:                                              ; preds = %220
  %230 = load i32, ptr %13, align 4
  %231 = icmp eq i32 %230, 4
  %232 = zext i1 %231 to i32
  %233 = load ptr, ptr %8, align 8
  %234 = getelementptr inbounds %struct.tdefl_compressor, ptr %233, i32 0, i32 23
  store i32 %232, ptr %234, align 8
  %235 = load i32, ptr %13, align 4
  %236 = icmp eq i32 %235, 3
  br i1 %236, label %237, label %244

237:                                              ; preds = %229
  %238 = load ptr, ptr %8, align 8
  %239 = getelementptr inbounds %struct.tdefl_compressor, ptr %238, i32 0, i32 41
  call void @llvm.memset.p0.i64(ptr align 2 %239, i8 0, i64 65536, i1 false)
  %240 = load ptr, ptr %8, align 8
  %241 = getelementptr inbounds %struct.tdefl_compressor, ptr %240, i32 0, i32 40
  call void @llvm.memset.p0.i64(ptr align 2 %241, i8 0, i64 65536, i1 false)
  %242 = load ptr, ptr %8, align 8
  %243 = getelementptr inbounds %struct.tdefl_compressor, ptr %242, i32 0, i32 8
  store i32 0, ptr %243, align 4
  br label %244

244:                                              ; preds = %237, %229
  br label %245

245:                                              ; preds = %244, %215, %210, %205, %202
  %246 = load ptr, ptr %8, align 8
  %247 = call noundef i32 @_ZL25tdefl_flush_output_bufferP16tdefl_compressor(ptr noundef %246)
  %248 = load ptr, ptr %8, align 8
  %249 = getelementptr inbounds %struct.tdefl_compressor, ptr %248, i32 0, i32 26
  store i32 %247, ptr %249, align 4
  store i32 %247, ptr %7, align 4
  br label %250

250:                                              ; preds = %245, %225, %171, %162, %135, %115, %26
  %251 = load i32, ptr %7, align 4
  ret i32 %251
}