; Function Attrs: mustprogress uwtable
define i32 @tdefl_compress(ptr noundef %0, ptr noundef %1, ptr noundef %2, ptr noundef %3, ptr noundef %4, i32 noundef %5) local_unnamed_addr #9 {
  %.not = icmp eq ptr %0, null
  br i1 %.not, label %7, label %11

7:                                                ; preds = %6
  %.not87 = icmp eq ptr %2, null
  br i1 %.not87, label %9, label %8

8:                                                ; preds = %7
  store i64 0, ptr %2, align 8
  br label %9

9:                                                ; preds = %8, %7
  %.not88 = icmp eq ptr %4, null
  br i1 %.not88, label %140, label %10

10:                                               ; preds = %9
  store i64 0, ptr %4, align 8
  br label %140

11:                                               ; preds = %6
  %12 = getelementptr inbounds i8, ptr %0, i64 136
  store ptr %1, ptr %12, align 8
  %13 = getelementptr inbounds i8, ptr %0, i64 152
  store ptr %2, ptr %13, align 8
  %14 = getelementptr inbounds i8, ptr %0, i64 144
  store ptr %3, ptr %14, align 8
  %15 = getelementptr inbounds i8, ptr %0, i64 160
  store ptr %4, ptr %15, align 8
  %16 = getelementptr inbounds i8, ptr %0, i64 176
  store ptr %1, ptr %16, align 8
  %.not89 = icmp eq ptr %2, null
  br i1 %.not89, label %19, label %17

17:                                               ; preds = %11
  %18 = load i64, ptr %2, align 8
  br label %19

19:                                               ; preds = %11, %17
  %20 = phi i64 [ %18, %17 ], [ 0, %11 ]
  %21 = getelementptr inbounds i8, ptr %0, i64 184
  store i64 %20, ptr %21, align 8
  %22 = getelementptr inbounds i8, ptr %0, i64 192
  store i64 0, ptr %22, align 8
  %23 = getelementptr inbounds i8, ptr %0, i64 168
  store i32 %5, ptr %23, align 8
  %24 = load ptr, ptr %0, align 8
  %25 = icmp ne ptr %3, null
  %26 = icmp ne ptr %4, null
  %27 = or i1 %25, %26
  %28 = icmp eq ptr %24, null
  %29 = xor i1 %27, %28
  br i1 %29, label %47, label %30

30:                                               ; preds = %19
  %31 = getelementptr inbounds i8, ptr %0, i64 132
  %32 = load i32, ptr %31, align 4
  %.not90 = icmp eq i32 %32, 0
  br i1 %.not90, label %33, label %47

33:                                               ; preds = %30
  %34 = getelementptr inbounds i8, ptr %0, i64 128
  %35 = load i32, ptr %34, align 8
  %36 = icmp ne i32 %35, 0
  %37 = icmp ne i32 %5, 4
  %or.cond = and i1 %37, %36
  br i1 %or.cond, label %47, label %38

38:                                               ; preds = %33
  br i1 %.not89, label %43, label %39

39:                                               ; preds = %38
  %40 = load i64, ptr %2, align 8
  %41 = icmp eq i64 %40, 0
  %42 = icmp ne ptr %1, null
  %or.cond3 = or i1 %42, %41
  br i1 %or.cond3, label %43, label %.thread

43:                                               ; preds = %39, %38
  br i1 %26, label %44, label %52

44:                                               ; preds = %43
  %45 = load i64, ptr %4, align 8
  %46 = icmp eq i64 %45, 0
  %or.cond5 = or i1 %25, %46
  br i1 %or.cond5, label %52, label %47

47:                                               ; preds = %44, %33, %30, %19
  br i1 %.not89, label %48, label %.thread

.thread:                                          ; preds = %39, %47
  store i64 0, ptr %2, align 8
  br label %48

48:                                               ; preds = %.thread, %47
  br i1 %26, label %49, label %50

49:                                               ; preds = %48
  store i64 0, ptr %4, align 8
  br label %50

50:                                               ; preds = %49, %48
  %51 = getelementptr inbounds i8, ptr %0, i64 132
  store i32 -2, ptr %51, align 4
  br label %140

52:                                               ; preds = %44, %43
  %53 = icmp eq i32 %5, 4
  %54 = zext i1 %53 to i32
  %55 = or i32 %35, %54
  store i32 %55, ptr %34, align 8
  %56 = getelementptr inbounds i8, ptr %0, i64 116
  %57 = load i32, ptr %56, align 4
  %.not91 = icmp eq i32 %57, 0
  br i1 %.not91, label %58, label %61

58:                                               ; preds = %52
  %59 = getelementptr inbounds i8, ptr %0, i64 120
  %60 = load i32, ptr %59, align 8
  %.not92 = icmp eq i32 %60, 0
  br i1 %.not92, label %93, label %61

61:                                               ; preds = %58, %52
  br i1 %.not89, label %63, label %62

62:                                               ; preds = %61
  store i64 0, ptr %2, align 8
  %.pre = load ptr, ptr %15, align 8
  br label %63

63:                                               ; preds = %62, %61
  %64 = phi ptr [ %.pre, %62 ], [ %4, %61 ]
  %.not28.i = icmp eq ptr %64, null
  br i1 %.not28.i, label %86, label %65

65:                                               ; preds = %63
  %66 = load i64, ptr %64, align 8
  %67 = load i64, ptr %22, align 8
  %68 = sub i64 %66, %67
  %69 = load i32, ptr %56, align 4
  %70 = zext i32 %69 to i64
  %..i = tail call i64 @llvm.umin.i64(i64 %68, i64 %70)
  %71 = load ptr, ptr %14, align 8
  %72 = getelementptr inbounds i8, ptr %71, i64 %67
  %73 = getelementptr inbounds i8, ptr %0, i64 234154
  %74 = getelementptr inbounds i8, ptr %0, i64 112
  %75 = load i32, ptr %74, align 8
  %76 = zext i32 %75 to i64
  %77 = getelementptr inbounds i8, ptr %73, i64 %76
  tail call void @llvm.memcpy.p0.p0.i64(ptr align 1 %72, ptr nonnull align 1 %77, i64 %..i, i1 false)
  %78 = trunc i64 %..i to i32
  %79 = load i32, ptr %74, align 8
  %80 = add i32 %79, %78
  store i32 %80, ptr %74, align 8
  %81 = load i32, ptr %56, align 4
  %82 = sub i32 %81, %78
  store i32 %82, ptr %56, align 4
  %83 = load i64, ptr %22, align 8
  %84 = add i64 %83, %..i
  store i64 %84, ptr %22, align 8
  %85 = load ptr, ptr %15, align 8
  store i64 %84, ptr %85, align 8
  br label %86

86:                                               ; preds = %65, %63
  %87 = getelementptr inbounds i8, ptr %0, i64 120
  %88 = load i32, ptr %87, align 8
  %.not29.i = icmp eq i32 %88, 0
  br i1 %.not29.i, label %_ZL25tdefl_flush_output_bufferP16tdefl_compressor.exit, label %89

89:                                               ; preds = %86
  %90 = load i32, ptr %56, align 4
  %.not30.i = icmp eq i32 %90, 0
  %91 = zext i1 %.not30.i to i32
  br label %_ZL25tdefl_flush_output_bufferP16tdefl_compressor.exit

_ZL25tdefl_flush_output_bufferP16tdefl_compressor.exit: ; preds = %86, %89
  %92 = phi i32 [ 0, %86 ], [ %91, %89 ]
  store i32 %92, ptr %31, align 4
  br label %140

93:                                               ; preds = %58
  %94 = getelementptr inbounds i8, ptr %0, i64 16
  %95 = load i32, ptr %94, align 8
  %96 = and i32 %95, 741375
  %or.cond102 = icmp eq i32 %96, 16385
  br i1 %or.cond102, label %97, label %101

97:                                               ; preds = %93
  %98 = tail call fastcc noundef i32 @_ZL19tdefl_compress_fastP16tdefl_compressor(ptr noundef nonnull %0), !range !16
  %.not95 = icmp eq i32 %98, 0
  br i1 %.not95, label %99, label %105

99:                                               ; preds = %97
  %100 = load i32, ptr %31, align 4
  br label %140

101:                                              ; preds = %93
  %102 = tail call fastcc noundef i32 @_ZL21tdefl_compress_normalP16tdefl_compressor(ptr noundef nonnull %0), !range !16
  %.not94 = icmp eq i32 %102, 0
  br i1 %.not94, label %103, label %105

103:                                              ; preds = %101
  %104 = load i32, ptr %31, align 4
  br label %140

105:                                              ; preds = %101, %97
  %106 = load i32, ptr %94, align 8
  %107 = and i32 %106, 12288
  %108 = icmp ne i32 %107, 0
  %109 = icmp ne ptr %1, null
  %or.cond7 = and i1 %109, %108
  br i1 %or.cond7, label %110, label %120

110:                                              ; preds = %105
  %111 = getelementptr inbounds i8, ptr %0, i64 32
  %112 = load i32, ptr %111, align 8
  %113 = zext i32 %112 to i64
  %114 = load ptr, ptr %16, align 8
  %115 = ptrtoint ptr %114 to i64
  %116 = ptrtoint ptr %1 to i64
  %117 = sub i64 %115, %116
  %118 = tail call i64 @mz_adler32(i64 noundef %113, ptr noundef nonnull %1, i64 noundef %117), !range !17
  %119 = trunc i64 %118 to i32
  store i32 %119, ptr %111, align 8
  br label %120

120:                                              ; preds = %110, %105
  %.not96 = icmp eq i32 %5, 0
  br i1 %.not96, label %138, label %121

121:                                              ; preds = %120
  %122 = getelementptr inbounds i8, ptr %0, i64 40
  %123 = load i32, ptr %122, align 8
  %.not97 = icmp eq i32 %123, 0
  br i1 %.not97, label %124, label %138

124:                                              ; preds = %121
  %125 = load i64, ptr %21, align 8
  %.not98 = icmp eq i64 %125, 0
  br i1 %.not98, label %126, label %138

126:                                              ; preds = %124
  %127 = load i32, ptr %56, align 4
  %.not99 = icmp eq i32 %127, 0
  br i1 %.not99, label %128, label %138

128:                                              ; preds = %126
  %129 = tail call fastcc noundef i32 @_ZL17tdefl_flush_blockP16tdefl_compressori(ptr noundef nonnull %0, i32 noundef %5)
  %130 = icmp slt i32 %129, 0
  br i1 %130, label %131, label %133

131:                                              ; preds = %128
  %132 = load i32, ptr %31, align 4
  br label %140

133:                                              ; preds = %128
  store i32 %54, ptr %59, align 8
  %134 = icmp eq i32 %5, 3
  br i1 %134, label %135, label %138

135:                                              ; preds = %133
  %136 = getelementptr inbounds i8, ptr %0, i64 103082
  %137 = getelementptr inbounds i8, ptr %0, i64 44
  store i32 0, ptr %137, align 4
  tail call void @llvm.memset.p0.i64(ptr noundef nonnull align 2 dereferenceable(131072) %136, i8 0, i64 131072, i1 false)
  br label %138

138:                                              ; preds = %133, %135, %126, %124, %121, %120
  %139 = tail call fastcc noundef i32 @_ZL25tdefl_flush_output_bufferP16tdefl_compressor(ptr noundef nonnull %0), !range !16
  store i32 %139, ptr %31, align 4
  br label %140

140:                                              ; preds = %9, %10, %138, %131, %103, %99, %_ZL25tdefl_flush_output_bufferP16tdefl_compressor.exit, %50
  %.0 = phi i32 [ -2, %50 ], [ %92, %_ZL25tdefl_flush_output_bufferP16tdefl_compressor.exit ], [ %139, %138 ], [ %132, %131 ], [ %100, %99 ], [ %104, %103 ], [ -2, %10 ], [ -2, %9 ]
  ret i32 %.0
}